; Function Attrs: mustprogress nounwind uwtable
define internal fastcc noundef i32 @_ZN12_GLOBAL__N_119MatcherTableEmitter15EmitMatcherListEPKN4llvm7MatcherEjjRNS1_11raw_ostreamE(ptr noundef nonnull align 8 dereferenceable(424) %0, ptr noundef %1, i32 noundef %2, i32 noundef %3, ptr noundef nonnull align 8 dereferenceable(48) %4) unnamed_addr #0 align 2 {
  %6 = alloca %"class.llvm::FormattedNumber", align 8
  %.not18 = icmp eq ptr %1, null
  br i1 %.not18, label %._crit_edge, label %.lr.ph

.lr.ph:                                           ; preds = %5
  %7 = getelementptr inbounds nuw i8, ptr %4, i64 24
  %8 = getelementptr inbounds nuw i8, ptr %4, i64 32
  %9 = getelementptr inbounds nuw i8, ptr %6, i64 8
  %10 = getelementptr inbounds nuw i8, ptr %6, i64 16
  %11 = getelementptr inbounds nuw i8, ptr %6, i64 20
  %12 = getelementptr inbounds nuw i8, ptr %6, i64 21
  %13 = getelementptr inbounds nuw i8, ptr %6, i64 22
  br label %14

14:                                               ; preds = %.lr.ph, %_ZN4llvm11raw_ostreamlsEPKc.exit17
  %.021 = phi ptr [ %1, %.lr.ph ], [ %48, %_ZN4llvm11raw_ostreamlsEPKc.exit17 ]
  %.01320 = phi i32 [ 0, %.lr.ph ], [ %45, %_ZN4llvm11raw_ostreamlsEPKc.exit17 ]
  %.01419 = phi i32 [ %3, %.lr.ph ], [ %46, %_ZN4llvm11raw_ostreamlsEPKc.exit17 ]
  %15 = load i8, ptr getelementptr inbounds (i8, ptr @_ZL12OmitComments, i64 128), align 8
  %16 = trunc i8 %15 to i1
  br i1 %16, label %_ZN4llvm11raw_ostreamlsEPKc.exit17, label %17

17:                                               ; preds = %14
  %18 = load ptr, ptr %7, align 8
  %19 = load ptr, ptr %8, align 8
  %20 = ptrtoint ptr %18 to i64
  %21 = ptrtoint ptr %19 to i64
  %22 = sub i64 %20, %21
  %23 = icmp ult i64 %22, 2
  br i1 %23, label %24, label %26

24:                                               ; preds = %17
  %25 = call noundef nonnull align 8 dereferenceable(48) ptr @_ZN4llvm11raw_ostream5writeEPKcm(ptr noundef nonnull align 8 dereferenceable(48) %4, ptr noundef nonnull @.str.54, i64 noundef 2) #19
  br label %_ZN4llvm11raw_ostreamlsEPKc.exit

26:                                               ; preds = %17
  store i16 10799, ptr %19, align 1
  %27 = load ptr, ptr %8, align 8
  %28 = getelementptr inbounds i8, ptr %27, i64 2
  store ptr %28, ptr %8, align 8
  br label %_ZN4llvm11raw_ostreamlsEPKc.exit

_ZN4llvm11raw_ostreamlsEPKc.exit:                 ; preds = %24, %26
  %.0.i.i = phi ptr [ %25, %24 ], [ %4, %26 ]
  %29 = zext i32 %.01419 to i64
  store i64 0, ptr %6, align 8, !alias.scope !42
  store i64 %29, ptr %9, align 8, !alias.scope !42
  store i32 6, ptr %10, align 8, !alias.scope !42
  store i8 0, ptr %11, align 4, !alias.scope !42
  store i8 0, ptr %12, align 1, !alias.scope !42
  store i8 0, ptr %13, align 2, !alias.scope !42
  %30 = call noundef nonnull align 8 dereferenceable(48) ptr @_ZN4llvm11raw_ostreamlsERKNS_15FormattedNumberE(ptr noundef nonnull align 8 dereferenceable(48) %.0.i.i, ptr noundef nonnull align 8 dereferenceable(23) %6) #19
  %31 = getelementptr inbounds nuw i8, ptr %30, i64 24
  %32 = load ptr, ptr %31, align 8
  %33 = getelementptr inbounds nuw i8, ptr %30, i64 32
  %34 = load ptr, ptr %33, align 8
  %35 = ptrtoint ptr %32 to i64
  %36 = ptrtoint ptr %34 to i64
  %37 = sub i64 %35, %36
  %38 = icmp ult i64 %37, 2
  br i1 %38, label %39, label %41

39:                                               ; preds = %_ZN4llvm11raw_ostreamlsEPKc.exit
  %40 = call noundef nonnull align 8 dereferenceable(48) ptr @_ZN4llvm11raw_ostream5writeEPKcm(ptr noundef nonnull align 8 dereferenceable(48) %30, ptr noundef nonnull @.str.55, i64 noundef 2) #19
  br label %_ZN4llvm11raw_ostreamlsEPKc.exit17

41:                                               ; preds = %_ZN4llvm11raw_ostreamlsEPKc.exit
  store i16 12074, ptr %34, align 1
  %42 = load ptr, ptr %33, align 8
  %43 = getelementptr inbounds i8, ptr %42, i64 2
  store ptr %43, ptr %33, align 8
  br label %_ZN4llvm11raw_ostreamlsEPKc.exit17

_ZN4llvm11raw_ostreamlsEPKc.exit17:               ; preds = %41, %39, %14
  %44 = call fastcc noundef i32 @_ZN12_GLOBAL__N_119MatcherTableEmitter11EmitMatcherEPKN4llvm7MatcherEjjRNS1_11raw_ostreamE(ptr noundef nonnull align 8 dereferenceable(424) %0, ptr noundef nonnull %.021, i32 noundef %2, i32 noundef %.01419, ptr noundef nonnull align 8 dereferenceable(48) %4)
  %45 = add i32 %44, %.01320
  %46 = add i32 %44, %.01419
  %47 = getelementptr inbounds nuw i8, ptr %.021, i64 8
  %48 = load ptr, ptr %47, align 8
  %.not = icmp eq ptr %48, null
  br i1 %.not, label %._crit_edge, label %14, !llvm.loop !45

._crit_edge:                                      ; preds = %_ZN4llvm11raw_ostreamlsEPKc.exit17, %5
  %.013.lcssa = phi i32 [ 0, %5 ], [ %45, %_ZN4llvm11raw_ostreamlsEPKc.exit17 ]
  ret i32 %.013.lcssa
}